; ModuleID = '57/1599.c'
source_filename = "57/1599.c"
target datalayout = "e-m:e-p270:32:32-p271:32:32-p272:64:64-i64:64-f80:128-n8:16:32:64-S128"
target triple = "x86_64-pc-linux-gnu"

@.str = private unnamed_addr constant [3 x i8] c"%d\00", align 1
@.str.1 = private unnamed_addr constant [3 x i8] c"%s\00", align 1
@.str.2 = private unnamed_addr constant [4 x i8] c"%s\0A\00", align 1

; Function Attrs: noinline nounwind uwtable
define dso_local i32 @main(i32 %0, i8** %1) #0 {
  %3 = alloca i32, align 4
  %4 = alloca i32, align 4
  %5 = alloca i8**, align 8
  %6 = alloca i32, align 4
  %7 = alloca i32, align 4
  %8 = alloca [20 x i8], align 16
  %9 = alloca i8, align 1
  store i32 0, i32* %3, align 4
  store i32 %0, i32* %4, align 4
  store i8** %1, i8*** %5, align 8
  %10 = call i32 (i8*, ...) @__isoc99_scanf(i8* getelementptr inbounds ([3 x i8], [3 x i8]* @.str, i64 0, i64 0), i32* %6)
  store i32 0, i32* %7, align 4
  br label %11

11:                                               ; preds = %50, %2
  %12 = load i32, i32* %7, align 4
  %13 = load i32, i32* %6, align 4
  %14 = icmp slt i32 %12, %13
  br i1 %14, label %15, label %53

15:                                               ; preds = %11
  %16 = getelementptr inbounds [20 x i8], [20 x i8]* %8, i64 0, i64 0
  %17 = call i32 (i8*, ...) @__isoc99_scanf(i8* getelementptr inbounds ([3 x i8], [3 x i8]* @.str.1, i64 0, i64 0), i8* %16)
  %18 = getelementptr inbounds [20 x i8], [20 x i8]* %8, i64 0, i64 0
  %19 = call i64 @strlen(i8* %18) #3
  %20 = sub i64 %19, 1
  %21 = trunc i64 %20 to i8
  store i8 %21, i8* %9, align 1
  %22 = load i8, i8* %9, align 1
  %23 = sext i8 %22 to i64
  %24 = getelementptr inbounds [20 x i8], [20 x i8]* %8, i64 0, i64 %23
  %25 = load i8, i8* %24, align 1
  %26 = sext i8 %25 to i32
  %27 = icmp eq i32 %26, 114
  br i1 %27, label %35, label %28

28:                                               ; preds = %15
  %29 = load i8, i8* %9, align 1
  %30 = sext i8 %29 to i64
  %31 = getelementptr inbounds [20 x i8], [20 x i8]* %8, i64 0, i64 %30
  %32 = load i8, i8* %31, align 1
  %33 = sext i8 %32 to i32
  %34 = icmp eq i32 %33, 121
  br i1 %34, label %35, label %41

35:                                               ; preds = %28, %15
  %36 = load i8, i8* %9, align 1
  %37 = sext i8 %36 to i32
  %38 = sub nsw i32 %37, 1
  %39 = sext i32 %38 to i64
  %40 = getelementptr inbounds [20 x i8], [20 x i8]* %8, i64 0, i64 %39
  store i8 0, i8* %40, align 1
  br label %47

41:                                               ; preds = %28
  %42 = load i8, i8* %9, align 1
  %43 = sext i8 %42 to i32
  %44 = sub nsw i32 %43, 2
  %45 = sext i32 %44 to i64
  %46 = getelementptr inbounds [20 x i8], [20 x i8]* %8, i64 0, i64 %45
  store i8 0, i8* %46, align 1
  br label %47

47:                                               ; preds = %41, %35
  %48 = getelementptr inbounds [20 x i8], [20 x i8]* %8, i64 0, i64 0
  %49 = call i32 (i8*, ...) @printf(i8* getelementptr inbounds ([4 x i8], [4 x i8]* @.str.2, i64 0, i64 0), i8* %48)
  br label %50

50:                                               ; preds = %47
  %51 = load i32, i32* %7, align 4
  %52 = add nsw i32 %51, 1
  store i32 %52, i32* %7, align 4
  br label %11

53:                                               ; preds = %11
  ret i32 0
}

declare dso_local i32 @__isoc99_scanf(i8*, ...) #1

; Function Attrs: nounwind readonly
declare dso_local i64 @strlen(i8*) #2

declare dso_local i32 @printf(i8*, ...) #1


!llvm.module.flags = !{!0}
!llvm.ident = !{!1}

!0 = !{i32 1, !"wchar_size", i32 4}
!1 = !{!"clang version 10.0.0-4ubuntu1 "}
